target datalayout = "e-m:e-p270:32:32-p271:32:32-p272:64:64-i64:64-i128:128-f80:128-n8:16:32:64-S128"
target triple = "x86_64-pc-linux-gnu"

%struct.BuildCtx = type { ptr, i32, ptr, ptr, ptr, ptr, i64, i32, i32, i32, i32, i32, ptr, ptr, ptr, ptr, ptr, ptr, ptr, ptr, ptr, [200 x %struct.BuildReloc] }
%struct.BuildReloc = type { i32, i32, i32 }

@ffid = internal global i32 0, align 4
@ffasmfunc = internal global i32 0, align 4
@stderr = external global ptr, align 8
@modstate = internal global i32 0, align 4
@regfunc = internal global i32 0, align 4
@obuf = internal global [8192 x i8] zeroinitializer, align 16
@optr = internal global ptr null, align 8
@modname = internal global [80 x i8] zeroinitializer, align 16
@.str.39 = private unnamed_addr constant [45 x i8] c"Error: no module for function definition %s\0A\00", align 1
@.str.40 = private unnamed_addr constant [31 x i8] c"Error: output buffer overflow\0A\00", align 1
@.str.41 = private unnamed_addr constant [3 x i8] c",\0A\00", align 1
@.str.42 = private unnamed_addr constant [7 x i8] c"  %s%s\00", align 1
@.str.43 = private unnamed_addr constant [8 x i8] c"lj_ffh_\00", align 1
@.str.44 = private unnamed_addr constant [7 x i8] c"lj_cf_\00", align 1
@.str.45 = private unnamed_addr constant [1 x i8] zeroinitializer, align 1
@.str.46 = private unnamed_addr constant [11 x i8] c"FFDEF(%s)\0A\00", align 1
@.str.47 = private unnamed_addr constant [37 x i8] c"Error: function name too long: '%s'\0A\00", align 1
@funcname = internal global [80 x i8] zeroinitializer, align 16
@.str.48 = private unnamed_addr constant [7 x i8] c"\22%s\22,\0A\00", align 1
@.str.49 = private unnamed_addr constant [5 x i8] c",\0A%d\00", align 1
@.str.51 = private unnamed_addr constant [37 x i8] c"Error: undefined fast function %s%s\0A\00", align 1
@.str.52 = private unnamed_addr constant [7 x i8] c"lj_ff_\00", align 1

; Function Attrs: nounwind uwtable
define internal i32 @find_ffofs(ptr noundef %0, ptr noundef %1) #0 {
  %3 = alloca i32, align 4
  %4 = alloca ptr, align 8
  %5 = alloca ptr, align 8
  %6 = alloca i32, align 4
  %7 = alloca ptr, align 8
  %8 = alloca i32, align 4
  store ptr %0, ptr %4, align 8, !tbaa !4
  store ptr %1, ptr %5, align 8, !tbaa !22
  call void @llvm.lifetime.start.p0(i64 4, ptr %6) #9
  store i32 0, ptr %6, align 4, !tbaa !20
  br label %9

9:                                                ; preds = %65, %2
  %10 = load i32, ptr %6, align 4, !tbaa !20
  %11 = load ptr, ptr %4, align 8, !tbaa !4
  %12 = getelementptr inbounds nuw %struct.BuildCtx, ptr %11, i32 0, i32 8
  %13 = load i32, ptr %12, align 4, !tbaa !50
  %14 = icmp slt i32 %10, %13
  br i1 %14, label %15, label %68

15:                                               ; preds = %9
  call void @llvm.lifetime.start.p0(i64 8, ptr %7) #9
  %16 = load ptr, ptr %4, align 8, !tbaa !4
  %17 = getelementptr inbounds nuw %struct.BuildCtx, ptr %16, i32 0, i32 17
  %18 = load ptr, ptr %17, align 8, !tbaa !51
  %19 = load i32, ptr %6, align 4, !tbaa !20
  %20 = sext i32 %19 to i64
  %21 = getelementptr inbounds ptr, ptr %18, i64 %20
  %22 = load ptr, ptr %21, align 8, !tbaa !22
  store ptr %22, ptr %7, align 8, !tbaa !22
  %23 = load ptr, ptr %7, align 8, !tbaa !22
  %24 = getelementptr inbounds i8, ptr %23, i64 0
  %25 = load i8, ptr %24, align 1, !tbaa !23
  %26 = sext i8 %25 to i32
  %27 = icmp eq i32 %26, 102
  br i1 %27, label %28, label %61

28:                                               ; preds = %15
  %29 = load ptr, ptr %7, align 8, !tbaa !22
  %30 = getelementptr inbounds i8, ptr %29, i64 1
  %31 = load i8, ptr %30, align 1, !tbaa !23
  %32 = sext i8 %31 to i32
  %33 = icmp eq i32 %32, 102
  br i1 %33, label %34, label %61

34:                                               ; preds = %28
  %35 = load ptr, ptr %7, align 8, !tbaa !22
  %36 = getelementptr inbounds i8, ptr %35, i64 2
  %37 = load i8, ptr %36, align 1, !tbaa !23
  %38 = sext i8 %37 to i32
  %39 = icmp eq i32 %38, 95
  br i1 %39, label %40, label %61

40:                                               ; preds = %34
  %41 = load ptr, ptr %7, align 8, !tbaa !22
  %42 = getelementptr inbounds i8, ptr %41, i64 3
  %43 = load ptr, ptr %5, align 8, !tbaa !22
  %44 = call i32 @strcmp(ptr noundef %42, ptr noundef %43) #12
  %45 = icmp ne i32 %44, 0
  br i1 %45, label %61, label %46

46:                                               ; preds = %40
  %47 = load ptr, ptr %4, align 8, !tbaa !4
  %48 = getelementptr inbounds nuw %struct.BuildCtx, ptr %47, i32 0, i32 12
  %49 = load ptr, ptr %48, align 8, !tbaa !52
  %50 = load i32, ptr %6, align 4, !tbaa !20
  %51 = sext i32 %50 to i64
  %52 = getelementptr inbounds ptr, ptr %49, i64 %51
  %53 = load ptr, ptr %52, align 8, !tbaa !53
  %54 = load ptr, ptr %4, align 8, !tbaa !4
  %55 = getelementptr inbounds nuw %struct.BuildCtx, ptr %54, i32 0, i32 5
  %56 = load ptr, ptr %55, align 8, !tbaa !54
  %57 = ptrtoint ptr %53 to i64
  %58 = ptrtoint ptr %56 to i64
  %59 = sub i64 %57, %58
  %60 = trunc i64 %59 to i32
  store i32 %60, ptr %3, align 4
  store i32 1, ptr %8, align 4
  br label %62

61:                                               ; preds = %40, %34, %28, %15
  store i32 0, ptr %8, align 4
  br label %62

62:                                               ; preds = %61, %46
  call void @llvm.lifetime.end.p0(i64 8, ptr %7) #9
  %63 = load i32, ptr %8, align 4
  switch i32 %63, label %72 [
    i32 0, label %64
  ]

64:                                               ; preds = %62
  br label %65

65:                                               ; preds = %64
  %66 = load i32, ptr %6, align 4, !tbaa !20
  %67 = add nsw i32 %66, 1
  store i32 %67, ptr %6, align 4, !tbaa !20
  br label %9, !llvm.loop !55

68:                                               ; preds = %9
  %69 = load ptr, ptr @stderr, align 8, !tbaa !24
  %70 = load ptr, ptr %5, align 8, !tbaa !22
  %71 = call i32 (ptr, ptr, ...) @fprintf(ptr noundef %69, ptr noundef @.str.51, ptr noundef @.str.52, ptr noundef %70) #9
  call void @exit(i32 noundef 1) #11
  unreachable

72:                                               ; preds = %62
  call void @llvm.lifetime.end.p0(i64 4, ptr %6) #9
  %73 = load i32, ptr %3, align 4
  ret i32 %73
}

; Function Attrs: nounwind uwtable
define internal void @libdef_func(ptr noundef %0, ptr noundef %1, i32 noundef %2) #0 {
  %4 = alloca ptr, align 8
  %5 = alloca ptr, align 8
  %6 = alloca i32, align 4
  %7 = alloca i32, align 4
  store ptr %0, ptr %4, align 8, !tbaa !4
  store ptr %1, ptr %5, align 8, !tbaa !22
  store i32 %2, ptr %6, align 4, !tbaa !20
  %8 = load i32, ptr %6, align 4, !tbaa !20
  %9 = icmp ne i32 %8, 0
  br i1 %9, label %10, label %13

10:                                               ; preds = %3
  %11 = load i32, ptr @ffasmfunc, align 4, !tbaa !20
  %12 = add nsw i32 %11, 1
  store i32 %12, ptr @ffasmfunc, align 4, !tbaa !20
  br label %13

13:                                               ; preds = %10, %3
  %14 = load ptr, ptr %4, align 8, !tbaa !4
  %15 = getelementptr inbounds nuw %struct.BuildCtx, ptr %14, i32 0, i32 1
  %16 = load i32, ptr %15, align 8, !tbaa !9
  %17 = icmp eq i32 %16, 7
  br i1 %17, label %18, label %74

18:                                               ; preds = %13
  %19 = load i32, ptr @modstate, align 4, !tbaa !20
  %20 = icmp eq i32 %19, 0
  br i1 %20, label %21, label %25

21:                                               ; preds = %18
  %22 = load ptr, ptr @stderr, align 8, !tbaa !24
  %23 = load ptr, ptr %5, align 8, !tbaa !22
  %24 = call i32 (ptr, ptr, ...) @fprintf(ptr noundef %22, ptr noundef @.str.39, ptr noundef %23) #9
  call void @exit(i32 noundef 1) #11
  unreachable

25:                                               ; preds = %18
  %26 = load i32, ptr @regfunc, align 4, !tbaa !20
  %27 = icmp eq i32 %26, 1
  br i1 %27, label %28, label %38

28:                                               ; preds = %25
  %29 = load ptr, ptr @optr, align 8, !tbaa !22
  %30 = getelementptr inbounds i8, ptr %29, i64 1
  %31 = icmp ugt ptr %30, getelementptr inbounds nuw (i8, ptr @obuf, i64 8192)
  br i1 %31, label %32, label %35

32:                                               ; preds = %28
  %33 = load ptr, ptr @stderr, align 8, !tbaa !24
  %34 = call i32 (ptr, ptr, ...) @fprintf(ptr noundef %33, ptr noundef @.str.40) #9
  call void @exit(i32 noundef 1) #11
  unreachable

35:                                               ; preds = %28
  %36 = load ptr, ptr @optr, align 8, !tbaa !22
  %37 = getelementptr inbounds nuw i8, ptr %36, i32 1
  store ptr %37, ptr @optr, align 8, !tbaa !22
  store i8 -2, ptr %36, align 1, !tbaa !23
  br label %73

38:                                               ; preds = %25
  %39 = load i32, ptr %6, align 4, !tbaa !20
  %40 = icmp ne i32 %39, 128
  br i1 %40, label %41, label %58

41:                                               ; preds = %38
  %42 = load i32, ptr @modstate, align 4, !tbaa !20
  %43 = icmp ne i32 %42, 1
  br i1 %43, label %44, label %49

44:                                               ; preds = %41
  %45 = load ptr, ptr %4, align 8, !tbaa !4
  %46 = getelementptr inbounds nuw %struct.BuildCtx, ptr %45, i32 0, i32 2
  %47 = load ptr, ptr %46, align 8, !tbaa !19
  %48 = call i32 (ptr, ptr, ...) @fprintf(ptr noundef %47, ptr noundef @.str.41) #9
  br label %49

49:                                               ; preds = %44, %41
  store i32 2, ptr @modstate, align 4, !tbaa !20
  %50 = load ptr, ptr %4, align 8, !tbaa !4
  %51 = getelementptr inbounds nuw %struct.BuildCtx, ptr %50, i32 0, i32 2
  %52 = load ptr, ptr %51, align 8, !tbaa !19
  %53 = load i32, ptr %6, align 4, !tbaa !20
  %54 = icmp ne i32 %53, 0
  %55 = select i1 %54, ptr @.str.43, ptr @.str.44
  %56 = load ptr, ptr %5, align 8, !tbaa !22
  %57 = call i32 (ptr, ptr, ...) @fprintf(ptr noundef %52, ptr noundef @.str.42, ptr noundef %55, ptr noundef %56) #9
  br label %58

58:                                               ; preds = %49, %38
  %59 = load i32, ptr @regfunc, align 4, !tbaa !20
  %60 = icmp ne i32 %59, 2
  br i1 %60, label %61, label %64

61:                                               ; preds = %58
  %62 = load i8, ptr getelementptr inbounds ([8192 x i8], ptr @obuf, i64 0, i64 2), align 2, !tbaa !23
  %63 = add i8 %62, 1
  store i8 %63, ptr getelementptr inbounds ([8192 x i8], ptr @obuf, i64 0, i64 2), align 2, !tbaa !23
  br label %64

64:                                               ; preds = %61, %58
  %65 = load i32, ptr @regfunc, align 4, !tbaa !20
  %66 = icmp eq i32 %65, 2
  br i1 %66, label %67, label %68

67:                                               ; preds = %64
  br label %70

68:                                               ; preds = %64
  %69 = load ptr, ptr %5, align 8, !tbaa !22
  br label %70

70:                                               ; preds = %68, %67
  %71 = phi ptr [ @.str.45, %67 ], [ %69, %68 ]
  %72 = load i32, ptr %6, align 4, !tbaa !20
  call void @libdef_name(ptr noundef %71, i32 noundef %72)
  br label %73

73:                                               ; preds = %70, %35
  br label %169

74:                                               ; preds = %13
  %75 = load ptr, ptr %4, align 8, !tbaa !4
  %76 = getelementptr inbounds nuw %struct.BuildCtx, ptr %75, i32 0, i32 1
  %77 = load i32, ptr %76, align 8, !tbaa !9
  %78 = icmp eq i32 %77, 6
  br i1 %78, label %79, label %85

79:                                               ; preds = %74
  %80 = load ptr, ptr %4, align 8, !tbaa !4
  %81 = getelementptr inbounds nuw %struct.BuildCtx, ptr %80, i32 0, i32 2
  %82 = load ptr, ptr %81, align 8, !tbaa !19
  %83 = load ptr, ptr %5, align 8, !tbaa !22
  %84 = call i32 (ptr, ptr, ...) @fprintf(ptr noundef %82, ptr noundef @.str.46, ptr noundef %83) #9
  br label %168

85:                                               ; preds = %74
  %86 = load ptr, ptr %4, align 8, !tbaa !4
  %87 = getelementptr inbounds nuw %struct.BuildCtx, ptr %86, i32 0, i32 1
  %88 = load i32, ptr %87, align 8, !tbaa !9
  %89 = icmp eq i32 %88, 8
  br i1 %89, label %90, label %101

90:                                               ; preds = %85
  %91 = load ptr, ptr %5, align 8, !tbaa !22
  %92 = call i64 @strlen(ptr noundef %91) #12
  %93 = icmp ugt i64 %92, 79
  br i1 %93, label %94, label %98

94:                                               ; preds = %90
  %95 = load ptr, ptr @stderr, align 8, !tbaa !24
  %96 = load ptr, ptr %5, align 8, !tbaa !22
  %97 = call i32 (ptr, ptr, ...) @fprintf(ptr noundef %95, ptr noundef @.str.47, ptr noundef %96) #9
  call void @exit(i32 noundef 1) #11
  unreachable

98:                                               ; preds = %90
  %99 = load ptr, ptr %5, align 8, !tbaa !22
  %100 = call ptr @strcpy(ptr noundef @funcname, ptr noundef %99) #9
  br label %167

101:                                              ; preds = %85
  %102 = load ptr, ptr %4, align 8, !tbaa !4
  %103 = getelementptr inbounds nuw %struct.BuildCtx, ptr %102, i32 0, i32 1
  %104 = load i32, ptr %103, align 8, !tbaa !9
  %105 = icmp eq i32 %104, 9
  br i1 %105, label %106, label %148

106:                                              ; preds = %101
  call void @llvm.lifetime.start.p0(i64 4, ptr %7) #9
  store i32 1, ptr %7, align 4, !tbaa !20
  br label %107

107:                                              ; preds = %139, %106
  %108 = load ptr, ptr %5, align 8, !tbaa !22
  %109 = load i32, ptr %7, align 4, !tbaa !20
  %110 = sext i32 %109 to i64
  %111 = getelementptr inbounds i8, ptr %108, i64 %110
  %112 = load i8, ptr %111, align 1, !tbaa !23
  %113 = sext i8 %112 to i32
  %114 = icmp ne i32 %113, 0
  br i1 %114, label %115, label %123

115:                                              ; preds = %107
  %116 = load i32, ptr %7, align 4, !tbaa !20
  %117 = sub nsw i32 %116, 1
  %118 = sext i32 %117 to i64
  %119 = getelementptr inbounds [80 x i8], ptr @modname, i64 0, i64 %118
  %120 = load i8, ptr %119, align 1, !tbaa !23
  %121 = sext i8 %120 to i32
  %122 = icmp ne i32 %121, 0
  br label %123

123:                                              ; preds = %115, %107
  %124 = phi i1 [ false, %107 ], [ %122, %115 ]
  br i1 %124, label %125, label %142

125:                                              ; preds = %123
  %126 = load ptr, ptr %5, align 8, !tbaa !22
  %127 = load i32, ptr %7, align 4, !tbaa !20
  %128 = sext i32 %127 to i64
  %129 = getelementptr inbounds i8, ptr %126, i64 %128
  %130 = load i8, ptr %129, align 1, !tbaa !23
  %131 = sext i8 %130 to i32
  %132 = icmp eq i32 %131, 95
  br i1 %132, label %133, label %138

133:                                              ; preds = %125
  %134 = load ptr, ptr %5, align 8, !tbaa !22
  %135 = load i32, ptr %7, align 4, !tbaa !20
  %136 = sext i32 %135 to i64
  %137 = getelementptr inbounds i8, ptr %134, i64 %136
  store i8 46, ptr %137, align 1, !tbaa !23
  br label %138

138:                                              ; preds = %133, %125
  br label %139

139:                                              ; preds = %138
  %140 = load i32, ptr %7, align 4, !tbaa !20
  %141 = add nsw i32 %140, 1
  store i32 %141, ptr %7, align 4, !tbaa !20
  br label %107, !llvm.loop !42

142:                                              ; preds = %123
  %143 = load ptr, ptr %4, align 8, !tbaa !4
  %144 = getelementptr inbounds nuw %struct.BuildCtx, ptr %143, i32 0, i32 2
  %145 = load ptr, ptr %144, align 8, !tbaa !19
  %146 = load ptr, ptr %5, align 8, !tbaa !22
  %147 = call i32 (ptr, ptr, ...) @fprintf(ptr noundef %145, ptr noundef @.str.48, ptr noundef %146) #9
  call void @llvm.lifetime.end.p0(i64 4, ptr %7) #9
  br label %166

148:                                              ; preds = %101
  %149 = load ptr, ptr %4, align 8, !tbaa !4
  %150 = getelementptr inbounds nuw %struct.BuildCtx, ptr %149, i32 0, i32 1
  %151 = load i32, ptr %150, align 8, !tbaa !9
  %152 = icmp eq i32 %151, 5
  br i1 %152, label %153, label %165

153:                                              ; preds = %148
  %154 = load i32, ptr %6, align 4, !tbaa !20
  %155 = icmp ne i32 %154, 0
  br i1 %155, label %156, label %164

156:                                              ; preds = %153
  %157 = load ptr, ptr %4, align 8, !tbaa !4
  %158 = getelementptr inbounds nuw %struct.BuildCtx, ptr %157, i32 0, i32 2
  %159 = load ptr, ptr %158, align 8, !tbaa !19
  %160 = load ptr, ptr %4, align 8, !tbaa !4
  %161 = load ptr, ptr %5, align 8, !tbaa !22
  %162 = call i32 @find_ffofs(ptr noundef %160, ptr noundef %161)
  %163 = call i32 (ptr, ptr, ...) @fprintf(ptr noundef %159, ptr noundef @.str.49, i32 noundef %162) #9
  br label %164

164:                                              ; preds = %156, %153
  br label %165

165:                                              ; preds = %164, %148
  br label %166

166:                                              ; preds = %165, %142
  br label %167

167:                                              ; preds = %166, %98
  br label %168

168:                                              ; preds = %167, %79
  br label %169

169:                                              ; preds = %168, %73
  %170 = load i32, ptr @ffid, align 4, !tbaa !20
  %171 = add nsw i32 %170, 1
  store i32 %171, ptr @ffid, align 4, !tbaa !20
  store i32 0, ptr @regfunc, align 4, !tbaa !20
  ret void
}