; Function Attrs: nofree nounwind uwtable
define internal void @libdef_func(ptr noundef readonly captures(none) %0, ptr noundef %1, i32 noundef %2) #7 {
  %4 = icmp ne i32 %2, 0
  br i1 %4, label %5, label %8

5:                                                ; preds = %3
  %6 = load i32, ptr @ffasmfunc, align 4, !tbaa !18
  %7 = add nsw i32 %6, 1
  store i32 %7, ptr @ffasmfunc, align 4, !tbaa !18
  br label %8

8:                                                ; preds = %5, %3
  %9 = getelementptr inbounds nuw i8, ptr %0, i64 8
  %10 = load i32, ptr %9, align 8, !tbaa !4
  switch i32 %10, label %74 [
    i32 7, label %13
    i32 6, label %48
    i32 8, label %52
    i32 9, label %.preheader
  ]

.preheader:                                       ; preds = %8
  %11 = getelementptr inbounds nuw i8, ptr %1, i64 1
  %12 = load i8, ptr %11, align 1, !tbaa !21
  %.not42 = icmp eq i8 %12, 0
  br i1 %.not42, label %.critedge, label %.lr.ph

13:                                               ; preds = %8
  %14 = load i32, ptr @modstate, align 4, !tbaa !18
  %15 = icmp eq i32 %14, 0
  br i1 %15, label %16, label %19

16:                                               ; preds = %13
  %17 = load ptr, ptr @stderr, align 8, !tbaa !22
  %18 = tail call i32 (ptr, ptr, ...) @fprintf(ptr noundef %17, ptr noundef nonnull @.str.39, ptr noundef %1) #16
  tail call void @exit(i32 noundef 1) #17
  unreachable

19:                                               ; preds = %13
  %20 = load i32, ptr @regfunc, align 4, !tbaa !18
  %21 = icmp eq i32 %20, 1
  br i1 %21, label %22, label %30

22:                                               ; preds = %19
  %23 = load ptr, ptr @optr, align 8, !tbaa !20
  %24 = getelementptr inbounds nuw i8, ptr %23, i64 1
  %25 = icmp ugt ptr %24, getelementptr inbounds nuw (i8, ptr @obuf, i64 8192)
  br i1 %25, label %26, label %29

26:                                               ; preds = %22
  %27 = load ptr, ptr @stderr, align 8, !tbaa !22
  %28 = tail call i64 @fwrite(ptr nonnull @.str.40, i64 30, i64 1, ptr %27) #19
  tail call void @exit(i32 noundef 1) #17
  unreachable

29:                                               ; preds = %22
  store ptr %24, ptr @optr, align 8, !tbaa !20
  store i8 -2, ptr %23, align 1, !tbaa !21
  br label %114

30:                                               ; preds = %19
  %.not38 = icmp eq i32 %2, 128
  br i1 %.not38, label %41, label %31

31:                                               ; preds = %30
  %.not39 = icmp eq i32 %14, 1
  br i1 %.not39, label %36, label %32

32:                                               ; preds = %31
  %33 = getelementptr inbounds nuw i8, ptr %0, i64 16
  %34 = load ptr, ptr %33, align 8, !tbaa !17
  %35 = tail call i64 @fwrite(ptr nonnull @.str.41, i64 2, i64 1, ptr %34)
  br label %36

36:                                               ; preds = %32, %31
  store i32 2, ptr @modstate, align 4, !tbaa !18
  %37 = getelementptr inbounds nuw i8, ptr %0, i64 16
  %38 = load ptr, ptr %37, align 8, !tbaa !17
  %39 = select i1 %4, ptr @.str.43, ptr @.str.44
  %40 = tail call i32 (ptr, ptr, ...) @fprintf(ptr noundef %38, ptr noundef nonnull @.str.42, ptr noundef nonnull %39, ptr noundef %1) #14
  %.pr = load i32, ptr @regfunc, align 4, !tbaa !18
  br label %41

41:                                               ; preds = %36, %30
  %42 = phi i32 [ %.pr, %36 ], [ %20, %30 ]
  %.not40 = icmp eq i32 %42, 2
  br i1 %.not40, label %46, label %43

43:                                               ; preds = %41
  %44 = load i8, ptr getelementptr inbounds nuw (i8, ptr @obuf, i64 2), align 2, !tbaa !21
  %45 = add i8 %44, 1
  store i8 %45, ptr getelementptr inbounds nuw (i8, ptr @obuf, i64 2), align 2, !tbaa !21
  br label %46

46:                                               ; preds = %43, %41
  %47 = phi ptr [ %1, %43 ], [ @.str.45, %41 ]
  tail call fastcc void @libdef_name(ptr noundef %47, i32 noundef %2)
  br label %114

48:                                               ; preds = %8
  %49 = getelementptr inbounds nuw i8, ptr %0, i64 16
  %50 = load ptr, ptr %49, align 8, !tbaa !17
  %51 = tail call i32 (ptr, ptr, ...) @fprintf(ptr noundef %50, ptr noundef nonnull @.str.46, ptr noundef %1) #14
  br label %114

52:                                               ; preds = %8
  %53 = tail call i64 @strlen(ptr noundef nonnull dereferenceable(1) %1) #18
  %54 = icmp ugt i64 %53, 79
  br i1 %54, label %55, label %58

55:                                               ; preds = %52
  %56 = load ptr, ptr @stderr, align 8, !tbaa !22
  %57 = tail call i32 (ptr, ptr, ...) @fprintf(ptr noundef %56, ptr noundef nonnull @.str.47, ptr noundef nonnull %1) #16
  tail call void @exit(i32 noundef 1) #17
  unreachable

58:                                               ; preds = %52
  %59 = tail call ptr @strcpy(ptr noundef nonnull dereferenceable(1) @funcname, ptr noundef nonnull dereferenceable(1) %1) #14
  br label %114

.lr.ph:                                           ; preds = %.preheader, %68
  %indvars.iv = phi i64 [ %indvars.iv.next, %68 ], [ 1, %.preheader ]
  %60 = phi i8 [ %70, %68 ], [ %12, %.preheader ]
  %61 = phi ptr [ %69, %68 ], [ %11, %.preheader ]
  %62 = add nsw i64 %indvars.iv, -1
  %63 = getelementptr inbounds [80 x i8], ptr @modname, i64 0, i64 %62
  %64 = load i8, ptr %63, align 1, !tbaa !21
  %.not37 = icmp eq i8 %64, 0
  br i1 %.not37, label %.critedge, label %65

65:                                               ; preds = %.lr.ph
  %66 = icmp eq i8 %60, 95
  br i1 %66, label %67, label %68

67:                                               ; preds = %65
  store i8 46, ptr %61, align 1, !tbaa !21
  br label %68

68:                                               ; preds = %65, %67
  %indvars.iv.next = add nuw nsw i64 %indvars.iv, 1
  %69 = getelementptr inbounds nuw i8, ptr %1, i64 %indvars.iv.next
  %70 = load i8, ptr %69, align 1, !tbaa !21
  %.not = icmp eq i8 %70, 0
  br i1 %.not, label %.critedge, label %.lr.ph, !llvm.loop !37

.critedge:                                        ; preds = %.lr.ph, %68, %.preheader
  %71 = getelementptr inbounds nuw i8, ptr %0, i64 16
  %72 = load ptr, ptr %71, align 8, !tbaa !17
  %73 = tail call i32 (ptr, ptr, ...) @fprintf(ptr noundef %72, ptr noundef nonnull @.str.48, ptr noundef nonnull %1) #14
  br label %114

74:                                               ; preds = %8
  %75 = icmp eq i32 %10, 5
  %or.cond = and i1 %4, %75
  br i1 %or.cond, label %76, label %114

76:                                               ; preds = %74
  %77 = getelementptr inbounds nuw i8, ptr %0, i64 16
  %78 = load ptr, ptr %77, align 8, !tbaa !17
  %79 = getelementptr inbounds nuw i8, ptr %0, i64 60
  %80 = load i32, ptr %79, align 4, !tbaa !38
  %81 = icmp sgt i32 %80, 0
  br i1 %81, label %.lr.ph.i, label %._crit_edge.i

.lr.ph.i:                                         ; preds = %76
  %82 = getelementptr inbounds nuw i8, ptr %0, i64 120
  %83 = load ptr, ptr %82, align 8, !tbaa !39
  %wide.trip.count.i = zext nneg i32 %80 to i64
  br label %84

84:                                               ; preds = %100, %.lr.ph.i
  %indvars.iv.i = phi i64 [ 0, %.lr.ph.i ], [ %indvars.iv.next.i, %100 ]
  %85 = getelementptr inbounds nuw ptr, ptr %83, i64 %indvars.iv.i
  %86 = load ptr, ptr %85, align 8, !tbaa !20
  %87 = load i8, ptr %86, align 1, !tbaa !21
  %88 = icmp eq i8 %87, 102
  br i1 %88, label %89, label %100

89:                                               ; preds = %84
  %90 = getelementptr inbounds nuw i8, ptr %86, i64 1
  %91 = load i8, ptr %90, align 1, !tbaa !21
  %92 = icmp eq i8 %91, 102
  br i1 %92, label %93, label %100

93:                                               ; preds = %89
  %94 = getelementptr inbounds nuw i8, ptr %86, i64 2
  %95 = load i8, ptr %94, align 1, !tbaa !21
  %96 = icmp eq i8 %95, 95
  br i1 %96, label %97, label %100

97:                                               ; preds = %93
  %98 = getelementptr inbounds nuw i8, ptr %86, i64 3
  %99 = tail call i32 @strcmp(ptr noundef nonnull dereferenceable(1) %98, ptr noundef nonnull dereferenceable(1) %1) #18
  %.not.i = icmp eq i32 %99, 0
  br i1 %.not.i, label %find_ffofs.exit, label %100

100:                                              ; preds = %97, %93, %89, %84
  %indvars.iv.next.i = add nuw nsw i64 %indvars.iv.i, 1
  %exitcond.not.i = icmp eq i64 %indvars.iv.next.i, %wide.trip.count.i
  br i1 %exitcond.not.i, label %._crit_edge.i, label %84, !llvm.loop !40

._crit_edge.i:                                    ; preds = %100, %76
  %101 = load ptr, ptr @stderr, align 8, !tbaa !22
  %102 = tail call i32 (ptr, ptr, ...) @fprintf(ptr noundef %101, ptr noundef nonnull @.str.51, ptr noundef nonnull @.str.52, ptr noundef %1) #16
  tail call void @exit(i32 noundef 1) #17
  unreachable

find_ffofs.exit:                                  ; preds = %97
  %103 = getelementptr inbounds nuw i8, ptr %0, i64 80
  %104 = load ptr, ptr %103, align 8, !tbaa !41
  %105 = getelementptr inbounds nuw ptr, ptr %104, i64 %indvars.iv.i
  %106 = load ptr, ptr %105, align 8, !tbaa !42
  %107 = getelementptr inbounds nuw i8, ptr %0, i64 40
  %108 = load ptr, ptr %107, align 8, !tbaa !43
  %109 = ptrtoint ptr %106 to i64
  %110 = ptrtoint ptr %108 to i64
  %111 = sub i64 %109, %110
  %112 = trunc i64 %111 to i32
  %113 = tail call i32 (ptr, ptr, ...) @fprintf(ptr noundef %78, ptr noundef nonnull @.str.49, i32 noundef %112) #14
  br label %114

114:                                              ; preds = %48, %.critedge, %find_ffofs.exit, %74, %58, %29, %46
  %115 = load i32, ptr @ffid, align 4, !tbaa !18
  %116 = add nsw i32 %115, 1
  store i32 %116, ptr @ffid, align 4, !tbaa !18
  store i32 0, ptr @regfunc, align 4, !tbaa !18
  ret void
}